ccopy_reg
_reconstructor
p1
(cdaneel.common
ParsecGameStore
p2
c__builtin__
object
p3
NtRp4
(dp5
S'saving'
p6
I00
sS'verbosity'
p7
I1
sS'cache'
p8
NsS'pickled'
p9
I01
sS'difficulty'
p10
I0
sS'connection'
p11
NsS'weights'
p12
(lp13
F22.467712896265638
aF2.7274103186480296
aF1
aF3.5591876814264545
aF1
asS'learning'
p14
I00
sS'daneel_engine'
p15
g1
(cdaneel.dpyke
engine
p16
g3
NtRp17
(dp18
S'knowledge_bases'
p19
(dp20
S'temp'
p21
g1
(cpyke.fact_base
fact_base
p22
g3
NtRp23
(dp24
S'initialized'
p25
I00
sS'entity_lists'
p26
(dp27
S'nonempty'
p28
g1
(cpyke.fact_base
fact_list
p29
g3
NtRp30
(dp31
S'case_specific_facts'
p32
(lp33
sS'hashes'
p34
(dp35
sS'universal_facts'
p36
(lp37
(I01
tp38
asS'name'
p39
g28
sS'fc_rule_refs'
p40
(lp41
sbsS'armies'
p42
g1
(g29
g3
NtRp43
(dp44
g32
(lp45
sg34
(dp46
(I4
(I2
ttp47
((I0
I1
I3
t(dtp48
s(I4
(I0
ttp49
((I1
I2
I3
t(dtp50
ssg36
(lp51
sg39
g42
sg40
(lp52
sbssS'entity_list_type'
p53
g29
sg39
g21
sbsS'game'
p54
g1
(g22
g3
NtRp55
(dp56
g25
I00
sg26
(dp57
g39
g1
(g29
g3
NtRp58
(dp59
g32
(lp60
(I0
VThe Universe
p61
tp62
a(I1
VCygnus
p63
tp64
a(I2
VOrion
p65
tp66
a(I3
VWormholes
p67
tp68
a(I4
VDeneb System
p69
tp70
a(I5
VDeneb
p71
tp72
a(I6
VAlbireo System
p73
tp74
a(I7
VAlbireo
p75
tp76
a(I8
VSadr System
p77
tp78
a(I9
VSadr
p79
tp80
a(I10
VGienah Cygni System
p81
tp82
a(I11
VGienah Cygni
p83
tp84
a(I12
VBetelgeuse System
p85
tp86
a(I13
VBetelgeuse
p87
tp88
a(I14
VRigel System
p89
tp90
a(I15
VRigel
p91
tp92
a(I16
VBellatrix System
p93
tp94
a(I17
VBellatrix
p95
tp96
a(I18
VMintaka System
p97
tp98
a(I19
VMintaka
p99
tp100
a(I20
VAlnitak System
p101
tp102
a(I21
VAlnitak
p103
tp104
a(I22
VSaiph System
p105
tp106
a(I23
VSaiph
p107
tp108
a(I24
VDeneb System to Sadr System
p109
tp110
a(I25
VDeneb System to Gienah Cygni System
p111
tp112
a(I26
VSadr System to Gienah Cygni System
p113
tp114
a(I27
VSadr System to Albireo System
p115
tp116
a(I28
VAlbireo System to Gienah Cygni System
p117
tp118
a(I29
VBetelgeuse System to Bellatrix System
p119
tp120
a(I30
VBetelgeuse System to Alnitak System
p121
tp122
a(I31
VBellatrix System to Mintaka System
p123
tp124
a(I32
VMintaka System to Alnitak System
p125
tp126
a(I33
VMintaka System to Rigel System
p127
tp128
a(I34
VAlnitak System to Saiph System
p129
tp130
a(I35
VSaiph System to Rigel System
p131
tp132
a(I36
VBetelgeuse System to Sadr System
p133
tp134
asg34
(dp135
sg36
(lp136
sg39
g39
sg40
(lp137
sbsS'parent'
p138
g1
(g29
g3
NtRp139
(dp140
g32
(lp141
(I1
I0
tp142
a(I2
I0
tp143
a(I3
I0
tp144
a(I4
I1
tp145
a(I5
I4
tp146
a(I6
I1
tp147
a(I7
I6
tp148
a(I8
I1
tp149
a(I9
I8
tp150
a(I10
I1
tp151
a(I11
I10
tp152
a(I12
I2
tp153
a(I13
I12
tp154
a(I14
I2
tp155
a(I15
I14
tp156
a(I16
I2
tp157
a(I17
I16
tp158
a(I18
I2
tp159
a(I19
I18
tp160
a(I20
I2
tp161
a(I21
I20
tp162
a(I22
I2
tp163
a(I23
I22
tp164
a(I24
I3
tp165
a(I25
I3
tp166
a(I26
I3
tp167
a(I27
I3
tp168
a(I28
I3
tp169
a(I29
I3
tp170
a(I30
I3
tp171
a(I31
I3
tp172
a(I32
I3
tp173
a(I33
I3
tp174
a(I34
I3
tp175
a(I35
I3
tp176
a(I36
I3
tp177
asg34
(dp178
sg36
(lp179
sg39
g138
sg40
(lp180
sbsS'subtype'
p181
g1
(g29
g3
NtRp182
(dp183
g32
(lp184
(I0
I0
tp185
a(I1
I1
tp186
a(I2
I1
tp187
a(I3
I1
tp188
a(I4
I2
tp189
a(I5
I3
tp190
a(I6
I2
tp191
a(I7
I3
tp192
a(I8
I2
tp193
a(I9
I3
tp194
a(I10
I2
tp195
a(I11
I3
tp196
a(I12
I2
tp197
a(I13
I3
tp198
a(I14
I2
tp199
a(I15
I3
tp200
a(I16
I2
tp201
a(I17
I3
tp202
a(I18
I2
tp203
a(I19
I3
tp204
a(I20
I2
tp205
a(I21
I3
tp206
a(I22
I2
tp207
a(I23
I3
tp208
a(I24
I5
tp209
a(I25
I5
tp210
a(I26
I5
tp211
a(I27
I5
tp212
a(I28
I5
tp213
a(I29
I5
tp214
a(I30
I5
tp215
a(I31
I5
tp216
a(I32
I5
tp217
a(I33
I5
tp218
a(I34
I5
tp219
a(I35
I5
tp220
a(I36
I5
tp221
asg34
(dp222
(I2
(I1
ttp223
((I0
t(dp224
(I2
tp225
(lp226
(I4
tp227
a(I6
tp228
a(I8
tp229
a(I10
tp230
a(I12
tp231
a(I14
tp232
a(I16
tp233
a(I18
tp234
a(I20
tp235
a(I22
tp236
as(I5
tp237
(lp238
(I24
tp239
a(I25
tp240
a(I26
tp241
a(I27
tp242
a(I28
tp243
a(I29
tp244
a(I30
tp245
a(I31
tp246
a(I32
tp247
a(I33
tp248
a(I34
tp249
a(I35
tp250
a(I36
tp251
as(I0
tp252
(lp253
(I0
tp254
as(I3
tp255
(lp256
(I5
tp257
a(I7
tp258
a(I9
tp259
a(I11
tp260
a(I13
tp261
a(I15
tp262
a(I17
tp263
a(I19
tp264
a(I21
tp265
a(I23
tp266
as(I1
tp267
(lp268
(I1
tp269
a(I2
tp270
a(I3
tp271
astp272
ssg36
(lp273
sg39
g181
sg40
(lp274
sbsg28
g1
(g29
g3
NtRp275
(dp276
g32
(lp277
sg34
(dp278
sg36
(lp279
(I01
tp280
asg39
g28
sg40
(lp281
sbsS'contains'
p282
g1
(g29
g3
NtRp283
(dp284
g32
(lp285
(I0
(I1
I2
I3
ttp286
a(I1
(I4
I6
I8
I10
ttp287
a(I2
(I12
I14
I16
I18
I20
I22
ttp288
a(I3
(I24
I25
I26
I27
I28
I29
I30
I31
I32
I33
I34
I35
I36
ttp289
a(I4
(I5
ttp290
a(I5
(ttp291
a(I6
(I7
ttp292
a(I7
(ttp293
a(I8
(I9
ttp294
a(I9
(ttp295
a(I10
(I11
ttp296
a(I11
(ttp297
a(I12
(I13
ttp298
a(I13
(ttp299
a(I14
(I15
ttp300
a(I15
(ttp301
a(I16
(I17
ttp302
a(I17
(ttp303
a(I18
(I19
ttp304
a(I19
(ttp305
a(I20
(I21
ttp306
a(I21
(ttp307
a(I22
(I23
ttp308
a(I23
(ttp309
a(I24
(ttp310
a(I25
(ttp311
a(I26
(ttp312
a(I27
(ttp313
a(I28
(ttp314
a(I29
(ttp315
a(I30
(ttp316
a(I31
(ttp317
a(I32
(ttp318
a(I33
(ttp319
a(I34
(ttp320
a(I35
(ttp321
a(I36
(ttp322
asg34
(dp323
sg36
(lp324
sg39
g282
sg40
(lp325
sbsS'player'
p326
g1
(g29
g3
NtRp327
(dp328
g32
(lp329
(I0
Vdaneel_ai
p330
tp331
a(I1
Vdaneel_ai
p332
tp333
a(I2
Vdaneel-ai
p334
tp335
asg34
(dp336
(I2
(I0
ttp337
((I1
t(dp338
(I2
tp339
(lp340
(g334
tp341
as(I0
tp342
(lp343
(g330
tp344
as(I1
tp345
(lp346
(g332
tp347
astp348
s(I2
(ttp349
((I0
I1
t(dp350
(t(lp351
(I0
g330
tp352
a(I1
g332
tp353
a(I2
g334
tp354
astp355
ssg36
(lp356
sg39
g326
sg40
(lp357
sbsS'owner'
p358
g1
(g29
g3
NtRp359
(dp360
g32
(lp361
(I5
I2
tp362
a(I7
I2
tp363
a(I9
I2
tp364
a(I11
I2
tp365
a(I13
I1
tp366
a(I15
I1
tp367
a(I17
I1
tp368
a(I19
I1
tp369
a(I21
I1
tp370
a(I23
I1
tp371
asg34
(dp372
(I2
(I0
I1
ttp373
((t(dp374
(I13
I1
tp375
(lp376
(tas(I9
I2
tp377
(lp378
(tas(I21
I1
tp379
(lp380
(tas(I11
I2
tp381
(lp382
(tas(I17
I1
tp383
(lp384
(tas(I15
I1
tp385
(lp386
(tas(I23
I1
tp387
(lp388
(tas(I19
I1
tp389
(lp390
(tas(I5
I2
tp391
(lp392
(tas(I7
I2
tp393
(lp394
(tastp395
s(I2
(I0
ttp396
((I1
t(dp397
(I15
tp398
(lp399
(I1
tp400
as(I21
tp401
(lp402
(I1
tp403
as(I23
tp404
(lp405
(I1
tp406
as(I9
tp407
(lp408
(I2
tp409
as(I5
tp410
(lp411
(I2
tp412
as(I11
tp413
(lp414
(I2
tp415
as(I17
tp416
(lp417
(I1
tp418
as(I7
tp419
(lp420
(I2
tp421
as(I13
tp422
(lp423
(I1
tp424
as(I19
tp425
(lp426
(I1
tp427
astp428
ssg36
(lp429
sg39
g358
sg40
(lp430
sbsS'turn'
p431
g1
(g29
g3
NtRp432
(dp433
g32
(lp434
(I8
tp435
asg34
(dp436
(I1
(ttp437
((I0
t(dp438
(t(lp439
(I8
tp440
astp441
ssg36
(lp442
sg39
g431
sg40
(lp443
sbsS'whoami'
p444
g1
(g29
g3
NtRp445
(dp446
g32
(lp447
(I1
tp448
asg34
(dp449
(I1
(ttp450
((I0
t(dp451
(t(lp452
(I1
tp453
astp454
ssg36
(lp455
sg39
g444
sg40
(lp456
sbsS'resources'
p457
g1
(g29
g3
NtRp458
(dp459
g32
(lp460
(I5
((I1
I1
I3
I0
tp461
tp462
tp463
a(I7
((I1
I1
I3
I0
tp464
tp465
tp466
a(I9
((I1
I20
I3
I0
tp467
tp468
tp469
a(I11
((I1
I1
I3
I0
tp470
tp471
tp472
a(I13
((I1
I10
I17
I0
tp473
tp474
tp475
a(I15
((I1
I2
I17
I0
tp476
tp477
tp478
a(I17
((I1
I2
I17
I0
tp479
tp480
tp481
a(I19
((I1
I1
I17
I0
tp482
tp483
tp484
a(I21
((I1
I1
I17
I0
tp485
tp486
tp487
a(I23
((I1
I1
I17
I0
tp488
tp489
tp490
asg34
(dp491
(I2
(I0
ttp492
((I1
t(dp493
(I15
tp494
(lp495
(g477
tp496
as(I21
tp497
(lp498
(g486
tp499
as(I23
tp500
(lp501
(g489
tp502
as(I9
tp503
(lp504
(g468
tp505
as(I5
tp506
(lp507
(g462
tp508
as(I11
tp509
(lp510
(g471
tp511
as(I17
tp512
(lp513
(g480
tp514
as(I7
tp515
(lp516
(g465
tp517
as(I13
tp518
(lp519
(g474
tp520
as(I19
tp521
(lp522
(g483
tp523
astp524
ssg36
(lp525
sg39
g457
sg40
(lp526
sbssg53
g29
sg39
g54
sbsS'init'
p527
g1
(g22
g3
NtRp528
(dp529
g25
I00
sg26
(dp530
S'end'
p531
g1
(g29
g3
NtRp532
(dp533
g32
(lp534
sg34
(dp535
sg36
(lp536
sg39
g531
sg40
(lp537
sbsg138
g1
(g29
g3
NtRp538
(dp539
g32
(lp540
sg34
(dp541
sg36
(lp542
sg39
g138
sg40
(lp543
sbsS'start'
p544
g1
(g29
g3
NtRp545
(dp546
g32
(lp547
sg34
(dp548
sg36
(lp549
sg39
g544
sg40
(lp550
sbsS'pos'
p551
g1
(g29
g3
NtRp552
(dp553
g32
(lp554
sg34
(dp555
sg36
(lp556
sg39
g551
sg40
(lp557
sbsg181
g1
(g29
g3
NtRp558
(dp559
g32
(lp560
sg34
(dp561
sg36
(lp562
sg39
g181
sg40
(lp563
sbsS'version'
p564
g1
(g29
g3
NtRp565
(dp566
g32
(lp567
sg34
(dp568
sg36
(lp569
sg39
g564
sg40
(lp570
sbsS'adjacent'
p571
g1
(g29
g3
NtRp572
(dp573
g32
(lp574
sg34
(dp575
(I2
(I0
ttp576
((I1
t(dp577
(I15
tp578
(lp579
(I19
tp580
a(I23
tp581
as(I21
tp582
(lp583
(I13
tp584
a(I19
tp585
a(I23
tp586
as(I23
tp587
(lp588
(I21
tp589
a(I15
tp590
as(I9
tp591
(lp592
(I5
tp593
a(I11
tp594
a(I7
tp595
a(I13
tp596
as(I5
tp597
(lp598
(I9
tp599
a(I11
tp600
as(I11
tp601
(lp602
(I5
tp603
a(I9
tp604
a(I7
tp605
as(I17
tp606
(lp607
(I13
tp608
a(I19
tp609
as(I7
tp610
(lp611
(I9
tp612
a(I11
tp613
as(I13
tp614
(lp615
(I17
tp616
a(I21
tp617
a(I9
tp618
as(I19
tp619
(lp620
(I17
tp621
a(I21
tp622
a(I15
tp623
astp624
ssg36
(lp625
(I5
I9
tp626
a(I9
I5
tp627
a(I5
I11
tp628
a(I11
I5
tp629
a(I9
I11
tp630
a(I11
I9
tp631
a(I9
I7
tp632
a(I7
I9
tp633
a(I7
I11
tp634
a(I11
I7
tp635
a(I13
I17
tp636
a(I17
I13
tp637
a(I13
I21
tp638
a(I21
I13
tp639
a(I17
I19
tp640
a(I19
I17
tp641
a(I19
I21
tp642
a(I21
I19
tp643
a(I19
I15
tp644
a(I15
I19
tp645
a(I21
I23
tp646
a(I23
I21
tp647
a(I23
I15
tp648
a(I15
I23
tp649
a(I13
I9
tp650
a(I9
I13
tp651
asg39
g571
sg40
(lp652
sbssg53
g29
sg39
g527
sbsS'parsec'
p653
g1
(cpyke.rule_base
rule_base
p654
g3
NtRp655
(dp656
g53
cpyke.rule_base
rule_list
p657
sg138
g1
(g654
g3
NtRp658
(dp659
g53
g657
sg138
NsS'rules'
p660
(dp661
S'planet'
p662
g1
(cpyke.bc_rule
bc_rule
p663
g3
NtRp664
(dp665
S'orig_bc_fn'
p666
crules.compiled_krb.parsec_bc
planet
p667
sg39
g662
sS'bc_fn'
p668
g667
sS'goal_name'
p669
g662
sS'plan_fn'
p670
NsS'patterns'
p671
(g1
(cpyke.contexts
variable
p672
g3
NtRp673
(dp674
g39
S'id'
p675
sbg1
(cpyke.pattern
pattern_literal
p676
g3
NtRp677
(dp678
S'literal'
p679
I3
sbtp680
sS'rule_base'
p681
g658
sS'goal_arg_pats'
p682
(g673
tp683
sS'plan_vars'
p684
(tsbsg431
g1
(g663
g3
NtRp685
(dp686
g666
crules.compiled_krb.parsec_bc
turn
p687
sg39
g431
sg668
g687
sg669
g431
sg670
crules.compiled_krb.parsec_plans
turn
p688
sg671
(g1
(g672
g3
NtRp689
(dp690
g39
S'num'
p691
sbtp692
sg681
g658
sg682
(g689
tp693
sg684
(S'num'
tp694
sbsS'star'
p695
g1
(g663
g3
NtRp696
(dp697
g666
crules.compiled_krb.parsec_bc
star
p698
sg39
g695
sg668
g698
sg669
g695
sg670
Nsg671
(g673
g1
(g676
g3
NtRp699
(dp700
g679
I2
sbtp701
sg681
g658
sg682
(g673
tp702
sg684
(tsbsS'daneel_version'
p703
g1
(g663
g3
NtRp704
(dp705
g666
crules.compiled_krb.parsec_bc
daneel_version
p706
sg39
g703
sg668
g706
sg669
g703
sg670
crules.compiled_krb.parsec_plans
daneel_version
p707
sg671
(tsg681
g658
sg682
(g1
(g676
g3
NtRp708
(dp709
g679
I1
sbtp710
sg684
(tsbsS'wormhole'
p711
g1
(g663
g3
NtRp712
(dp713
g666
crules.compiled_krb.parsec_bc
wormhole
p714
sg39
g711
sg668
g714
sg669
g711
sg670
Nsg671
(g673
g1
(g676
g3
NtRp715
(dp716
g679
I5
sbtp717
sg681
g658
sg682
(g673
tp718
sg684
(tsbssS'exclude_set'
p719
c__builtin__
frozenset
p720
((ltRp721
sg25
I01
sg26
(dp722
g662
g1
(g657
g3
NtRp723
(dp724
g39
g662
sS'bc_rules'
p725
(lp726
g664
asbsg431
g1
(g657
g3
NtRp727
(dp728
g39
g431
sg725
(lp729
g685
asbsg695
g1
(g657
g3
NtRp730
(dp731
g39
g695
sg725
(lp732
g696
asbsg703
g1
(g657
g3
NtRp733
(dp734
g39
g703
sg725
(lp735
g704
asbsg711
g1
(g657
g3
NtRp736
(dp737
g39
g711
sg725
(lp738
g712
asbssS'fc_rules'
p739
(lp740
sg39
g653
sS'root_name'
p741
g653
sS'num_prove_calls'
p742
I0
sS'num_fc_rules_triggered'
p743
I0
sS'num_fc_rules_rerun'
p744
I0
sS'num_bc_rules_matched'
p745
I10
sS'num_bc_rule_successes'
p746
I86
sS'num_bc_rule_failures'
p747
I8
sbsg660
(dp748
S'moving_planet_score'
p749
g1
(g663
g3
NtRp750
(dp751
g666
crules.compiled_krb.risk_bc
moving_planet_score
p752
sg39
g749
sg668
g752
sg669
S'planet_score'
p753
sg670
Nsg671
(g1
(g672
g3
NtRp754
(dp755
g39
S'planet_id'
p756
sbg1
(g672
g3
NtRp757
(dp758
g39
S'player_id_x'
p759
sbg1
(g672
g3
NtRp760
(dp761
g39
S'int'
p762
sbg1
(g672
g3
NtRp763
(dp764
g39
S'some_amount'
p765
sbg1
(g672
g3
NtRp766
(dp767
g39
S'other_planet'
p768
sbg1
(g672
g3
NtRp769
(dp770
g39
S'branching_factor'
p771
sbg1
(g672
g3
NtRp772
(dp773
g39
S'safety_factor'
p774
sbg1
(g672
g3
NtRp775
(dp776
g39
S'player_id_t'
p777
sbg1
(g672
g3
NtRp778
(dp779
g39
S'amount'
p780
sbg1
(g672
g3
NtRp781
(dp782
g39
S'troops'
p783
sbtp784
sg681
g655
sg682
(g1
(g672
g3
NtRp785
(dp786
g39
S'player_id'
p787
sbg754
g781
g769
g772
tp788
sg684
(tsbsS'attackmin'
p789
g1
(g663
g3
NtRp790
(dp791
g666
crules.compiled_krb.risk_bc
attackmin
p792
sg39
g789
sg668
g792
sg669
S'attackminimum'
p793
sg670
Nsg671
(g785
g754
g1
(g672
g3
NtRp794
(dp795
g39
S'army_count'
p796
sbg1
(g672
g3
NtRp797
(dp798
g39
S'planet_dest_id'
p799
sbg1
(g672
g3
NtRp800
(dp801
g39
S'enemy_army'
p802
sbg1
(g672
g3
NtRp803
(dp804
g39
S'troop_num'
p805
sbtp806
sg681
g655
sg682
(g785
g754
g803
tp807
sg684
(tsbsS'enemy_planet_score'
p808
g1
(g663
g3
NtRp809
(dp810
g666
crules.compiled_krb.risk_bc
enemy_planet_score
p811
sg39
g808
sg668
g811
sg669
g753
sg670
Nsg671
(g785
g754
g1
(g672
g3
NtRp812
(dp813
g39
S'etroops'
p814
sbg766
g769
g772
g781
tp815
sg681
g655
sg682
(g785
g754
g781
g769
g772
tp816
sg684
(tsbsS'neutralplanet'
p817
g1
(g663
g3
NtRp818
(dp819
g666
crules.compiled_krb.risk_bc
neutralplanet
p820
sg39
g817
sg668
g820
sg669
g817
sg670
Nsg671
(g754
g1
(g676
g3
NtRp821
(dp822
g679
I-1
sbtp823
sg681
g655
sg682
(g754
tp824
sg684
(tsbsS'realplayer'
p825
g1
(g663
g3
NtRp826
(dp827
g666
crules.compiled_krb.risk_bc
realplayer
p828
sg39
g825
sg668
g828
sg669
g326
sg670
Nsg671
(g785
g1
(g672
g3
NtRp829
(dp830
g39
S'player_name'
p831
sbtp832
sg681
g655
sg682
(g785
g829
tp833
sg684
(tsbsS'subseq_finished'
p834
g1
(g663
g3
NtRp835
(dp836
g666
crules.compiled_krb.risk_bc
subseq_finished
p837
sg39
g834
sg668
g837
sg669
S'subseq'
p838
sg670
Nsg671
(tsg681
g655
sg682
(g1
(g676
g3
NtRp839
(dp840
g679
(tsbg1
(g676
g3
NtRp841
(dp842
g679
(tsbtp843
sg684
(tsbsS'reinforcements'
p844
g1
(g663
g3
NtRp845
(dp846
g666
crules.compiled_krb.risk_bc
reinforcements
p847
sg39
g844
sg668
g847
sg669
g844
sg670
Nsg671
(g785
g829
g754
g1
(g672
g3
NtRp848
(dp849
g39
g457
sbg1
(cpyke.pattern
pattern_tuple
p850
g3
NtRp851
(dp852
S'rest_var'
p853
g1
(g672
g3
NtRp854
(dp855
g39
S'rest'
p856
sbsS'elements'
p857
(g1
(g676
g3
NtRp858
(dp859
g679
I1
sbg1
(g672
g3
NtRp860
(dp861
g39
S'curr'
p862
sbg1
(g672
g3
NtRp863
(dp864
g39
S'total_available_t'
p865
sbtp866
sbg760
g1
(g672
g3
NtRp867
(dp868
g39
g662
sbg1
(g672
g3
NtRp869
(dp870
g39
S'used'
p871
sbg1
(g672
g3
NtRp872
(dp873
g39
S'total_available'
p874
sbtp875
sg681
g655
sg682
(g785
g872
tp876
sg684
(tsbsg753
g1
(g663
g3
NtRp877
(dp878
g666
crules.compiled_krb.risk_bc
planet_score
p879
sg39
g753
sg668
g879
sg669
g753
sg670
Nsg671
(g785
g754
g781
g766
g769
g772
tp880
sg681
g655
sg682
(g785
g754
g781
g769
g772
tp881
sg684
(tsbsS'moves'
p882
g1
(g663
g3
NtRp883
(dp884
g666
crules.compiled_krb.risk_bc
moves
p885
sg39
g882
sg668
g885
sg669
S'destinations'
p886
sg670
crules.compiled_krb.risk_plans
moves
p887
sg671
(g785
g1
(g672
g3
NtRp888
(dp889
g39
S'my_planet_id'
p890
sbg1
(g672
g3
NtRp891
(dp892
g39
S'army_num'
p893
sbg797
g1
(g672
g3
NtRp894
(dp895
g39
S'other_player_id'
p896
sbg1
(g676
g3
NtRp897
(dp898
g679
I0
sbg1
(g672
g3
NtRp899
(dp900
g39
S'required_sink_t'
p901
sbg794
g1
(g672
g3
NtRp902
(dp903
g39
S'required_sink'
p904
sbg778
tp905
sg681
g655
sg682
(g785
g888
g797
g778
tp906
sg684
(S'army_num'
tp907
sbsS'takenplanet'
p908
g1
(g663
g3
NtRp909
(dp910
g666
crules.compiled_krb.risk_bc
takenplanet
p911
sg39
g908
sg668
g911
sg669
g908
sg670
Nsg671
(g785
g1
(g672
g3
NtRp912
(dp913
g39
g39
sbg754
g891
tp914
sg681
g655
sg682
(g785
g754
g891
tp915
sg684
(tsbsS'minimum_mine'
p916
g1
(g663
g3
NtRp917
(dp918
g666
crules.compiled_krb.risk_bc
minimum_mine
p919
sg39
g916
sg668
g919
sg669
S'minimum'
p920
sg670
Nsg671
(g785
g754
g794
g797
g1
(g676
g3
NtRp921
(dp922
g679
I1
sbg1
(g672
g3
NtRp923
(dp924
g39
S'minval'
p925
sbg803
tp926
sg681
g655
sg682
(g1
(g676
g3
NtRp927
(dp928
g679
I0
sbg785
g754
g803
tp929
sg684
(tsbsS'best_combo'
p930
g1
(g663
g3
NtRp931
(dp932
g666
crules.compiled_krb.risk_bc
best_combo
p933
sg39
g930
sg668
g933
sg669
g930
sg670
Nsg671
(g1
(g672
g3
NtRp934
(dp935
g39
S'combination'
p936
sbg1
(g672
g3
NtRp937
(dp938
g39
S'choice_list'
p939
sbtp940
sg681
g655
sg682
(g937
g872
g934
tp941
sg684
(tsbsS'armiesneutral'
p942
g1
(g663
g3
NtRp943
(dp944
g666
crules.compiled_krb.risk_bc
armiesneutral
p945
sg39
g942
sg668
g945
sg669
g42
sg670
Nsg671
(g775
g760
g754
g778
g803
tp946
sg681
g655
sg682
(g1
(g676
g3
NtRp947
(dp948
g679
I-1
sbg754
g803
tp949
sg684
(tsbsS'order_order'
p950
g1
(g663
g3
NtRp951
(dp952
g666
crules.compiled_krb.risk_bc
order_order
p953
sg39
g950
sg668
g953
sg669
S'ordered_to'
p954
sg670
Nsg671
(g757
g760
g754
g763
tp955
sg681
g655
sg682
(g757
g760
g754
g763
tp956
sg684
(tsbsS'adjacentenemies'
p957
g1
(g663
g3
NtRp958
(dp959
g666
crules.compiled_krb.risk_bc
adjacentenemies
p960
sg39
g957
sg668
g960
sg669
g957
sg670
Nsg671
(g785
g754
g891
g1
(g672
g3
NtRp961
(dp962
g39
S'enemy_planet_id'
p963
sbg1
(g672
g3
NtRp964
(dp965
g39
S'enemy_army_num'
p966
sbtp967
sg681
g655
sg682
(g785
g754
g891
g961
g964
tp968
sg684
(tsbsS'minimum_enemy_defend'
p969
g1
(g663
g3
NtRp970
(dp971
g666
crules.compiled_krb.risk_bc
minimum_enemy_defend
p972
sg39
g969
sg668
g972
sg669
g920
sg670
Nsg671
(g785
g754
g1
(g672
g3
NtRp973
(dp974
g39
S'army'
p975
sbg803
tp976
sg681
g655
sg682
(g1
(g676
g3
NtRp977
(dp978
g679
I1
sbg785
g754
g803
tp979
sg684
(tsbsg42
g1
(g663
g3
NtRp980
(dp981
g666
crules.compiled_krb.risk_bc
armies
p982
sg39
g42
sg668
g982
sg669
g42
sg670
Nsg671
(g754
g848
g1
(g850
g3
NtRp983
(dp984
g853
g854
sg857
(g1
(g676
g3
NtRp985
(dp986
g679
I1
sbg1
(g672
g3
NtRp987
(dp988
g39
S'troop_num_t'
p989
sbtp990
sbg775
g760
g778
g803
tp991
sg681
g655
sg682
(g785
g754
g803
tp992
sg684
(tsbsS'temp_order'
p993
g1
(g663
g3
NtRp994
(dp995
g666
crules.compiled_krb.risk_bc
temp_order
p996
sg39
g993
sg668
g996
sg669
g954
sg670
Nsg671
(g757
g760
g754
g763
tp997
sg681
g655
sg682
(g757
g760
g754
g763
tp998
sg684
(tsbsS'enemyplanet'
p999
g1
(g663
g3
NtRp1000
(dp1001
g666
crules.compiled_krb.risk_bc
enemyplanet
p1002
sg39
g999
sg668
g1002
sg669
g999
sg670
Nsg671
(g754
g1
(g672
g3
NtRp1003
(dp1004
g39
g326
sbg891
tp1005
sg681
g655
sg682
(g785
g754
g891
tp1006
sg684
(tsbsS'minimum_mine_rec'
p1007
g1
(g663
g3
NtRp1008
(dp1009
g666
crules.compiled_krb.risk_bc
minimum_mine_rec
p1010
sg39
g1007
sg668
g1010
sg669
g920
sg670
Nsg671
(g754
g785
g803
tp1011
sg681
g655
sg682
(g1
(g676
g3
NtRp1012
(dp1013
g679
I1
sbg785
g754
g803
tp1014
sg684
(tsbsS'subseq_1'
p1015
g1
(g663
g3
NtRp1016
(dp1017
g666
crules.compiled_krb.risk_bc
subseq_1
p1018
sg39
g1015
sg668
g1018
sg669
g838
sg670
Nsg671
(g1
(g672
g3
NtRp1019
(dp1020
g39
S'rest_choices'
p1021
sbg1
(g672
g3
NtRp1022
(dp1023
g39
S'rest_available'
p1024
sbtp1025
sg681
g655
sg682
(g1
(g850
g3
NtRp1026
(dp1027
g853
g1019
sg857
(g1
(g672
g3
NtRp1028
(dp1029
g39
S'node'
p1030
sbtp1031
sbg1
(g850
g3
NtRp1032
(dp1033
g853
g1022
sg857
(g1028
tp1034
sbtp1035
sg684
(tsbsg571
g1
(g663
g3
NtRp1036
(dp1037
g666
crules.compiled_krb.risk_bc
adjacent
p1038
sg39
g571
sg668
g1038
sg669
g571
sg670
Nsg671
(g1
(g672
g3
NtRp1039
(dp1040
g39
S'wid'
p1041
sbg1
(g672
g3
NtRp1042
(dp1043
g39
S'pos_start'
p1044
sbg1
(g672
g3
NtRp1045
(dp1046
g39
S'pos_end'
p1047
sbg1
(g672
g3
NtRp1048
(dp1049
g39
S'star_id'
p1050
sbg1
(g672
g3
NtRp1051
(dp1052
g39
S'star_two_id'
p1053
sbg754
g1
(g672
g3
NtRp1054
(dp1055
g39
S'planet_two_id'
p1056
sbtp1057
sg681
g655
sg682
(g754
g1054
tp1058
sg684
(tsbsS'minimum_enemy_attack'
p1059
g1
(g663
g3
NtRp1060
(dp1061
g666
crules.compiled_krb.risk_bc
minimum_enemy_attack
p1062
sg39
g1059
sg668
g1062
sg669
g920
sg670
Nsg671
(g785
g754
g973
g803
tp1063
sg681
g655
sg682
(g1
(g676
g3
NtRp1064
(dp1065
g679
I0
sbg785
g754
g803
tp1066
sg684
(tsbsS'myplanet'
p1067
g1
(g663
g3
NtRp1068
(dp1069
g666
crules.compiled_krb.risk_bc
myplanet
p1070
sg39
g1067
sg668
g1070
sg669
g1067
sg670
Nsg671
(g754
g785
g891
tp1071
sg681
g655
sg682
(g785
g754
g891
tp1072
sg684
(tsbsS'subseq_2'
p1073
g1
(g663
g3
NtRp1074
(dp1075
g666
crules.compiled_krb.risk_bc
subseq_2
p1076
sg39
g1073
sg668
g1076
sg669
g838
sg670
Nsg671
(g1
(g672
g3
NtRp1077
(dp1078
g39
S'choice'
p1079
sbg1022
tp1080
sg681
g655
sg682
(g1077
g1
(g850
g3
NtRp1081
(dp1082
g853
g1022
sg857
(g1
(cpyke.contexts
anonymous
p1083
g3
NtRp1084
(dp1085
g39
S'_'
sbtp1086
sbtp1087
sg684
(tsbsS'minimum_neutral'
p1088
g1
(g663
g3
NtRp1089
(dp1090
g666
crules.compiled_krb.risk_bc
minimum_neutral
p1091
sg39
g1088
sg668
g1091
sg669
g920
sg670
Nsg671
(g754
g803
tp1092
sg681
g655
sg682
(g1
(g672
g3
NtRp1093
(dp1094
g39
S'val'
p1095
sbg785
g754
g803
tp1096
sg684
(tsbssg719
g721
sg25
I01
sg26
(dp1097
g908
g1
(g657
g3
NtRp1098
(dp1099
g39
g908
sg725
(lp1100
g909
asbsg42
g1
(g657
g3
NtRp1101
(dp1102
g39
g42
sg725
(lp1103
g980
ag943
asbsg793
g1
(g657
g3
NtRp1104
(dp1105
g39
g793
sg725
(lp1106
g790
asbsg954
g1
(g657
g3
NtRp1107
(dp1108
g39
g954
sg725
(lp1109
g994
ag951
asbsg999
g1
(g657
g3
NtRp1110
(dp1111
g39
g999
sg725
(lp1112
g1000
asbsg817
g1
(g657
g3
NtRp1113
(dp1114
g39
g817
sg725
(lp1115
g818
asbsg1067
g1
(g657
g3
NtRp1116
(dp1117
g39
g1067
sg725
(lp1118
g1068
asbsg326
g1
(g657
g3
NtRp1119
(dp1120
g39
g326
sg725
(lp1121
g826
asbsg920
g1
(g657
g3
NtRp1122
(dp1123
g39
g920
sg725
(lp1124
g1008
ag917
ag1089
ag1060
ag970
asbsg844
g1
(g657
g3
NtRp1125
(dp1126
g39
g844
sg725
(lp1127
g845
asbsg753
g1
(g657
g3
NtRp1128
(dp1129
g39
g753
sg725
(lp1130
g877
ag809
ag750
asbsg571
g1
(g657
g3
NtRp1131
(dp1132
g39
g571
sg725
(lp1133
g1036
asbsg838
g1
(g657
g3
NtRp1134
(dp1135
g39
g838
sg725
(lp1136
g835
ag1016
ag1074
asbsg886
g1
(g657
g3
NtRp1137
(dp1138
g39
g886
sg725
(lp1139
g883
asbsg930
g1
(g657
g3
NtRp1140
(dp1141
g39
g930
sg725
(lp1142
g931
asbsg957
g1
(g657
g3
NtRp1143
(dp1144
g39
g957
sg725
(lp1145
g958
asbssg739
(lp1146
sg39
S'risk'
p1147
sg741
g653
sg742
I56
sg743
I0
sg744
I0
sg745
I50
sg746
I88
sg747
I50
sbsS'orders'
p1148
g1
(g22
g3
NtRp1149
(dp1150
g25
I00
sg26
(dp1151
g28
g1
(g29
g3
NtRp1152
(dp1153
g32
(lp1154
sg34
(dp1155
sg36
(lp1156
(I01
tp1157
asg39
g28
sg40
(lp1158
sbsg42
g1
(g29
g3
NtRp1159
(dp1160
g32
(lp1161
sg34
(dp1162
(I4
(I2
ttp1163
((I0
I1
I3
t(dtp1164
s(I4
(I0
ttp1165
((I1
I2
I3
t(dtp1166
ssg36
(lp1167
sg39
g42
sg40
(lp1168
sbssg53
g29
sg39
g1148
sbsS'special'
p1169
g1
(cpyke.special
special_knowledge_base
p1170
g3
NtRp1171
(dp1172
g25
I00
sg26
(dp1173
S'command'
p1174
g1
(cpyke.special
command
p1175
g3
NtRp1176
(dp1177
g39
g1174
sbsS'check_command'
p1178
g1
(cpyke.special
check_command
p1179
g3
NtRp1180
(dp1181
g39
g1178
sbsS'claim_goal'
p1182
g1
(cpyke.special
claim_goal
p1183
g3
NtRp1184
(dp1185
g39
g1182
sbsS'general_command'
p1186
g1
(cpyke.special
general_command
p1187
g3
NtRp1188
(dp1189
g39
g1186
sbssg53
Nsg39
g1169
sbssS'rule_bases'
p1190
(dp1191
g653
g658
sS'rfts'
p1192
g1
(g654
g3
NtRp1193
(dp1194
g53
g657
sg138
g658
sg660
(dp1195
S'orders_move_colony'
p1196
g1
(g663
g3
NtRp1197
(dp1198
g666
crules.compiled_krb.rfts_bc
orders_move_colony
p1199
sg39
g1196
sg668
g1199
sg669
S'orders_move'
p1200
sg670
Nsg671
(g1
(g672
g3
NtRp1201
(dp1202
g39
S'fleet_id'
p1203
sbg754
tp1204
sg681
g1193
sg682
(g1201
g754
tp1205
sg684
(tsbsS'build_scouts'
p1206
g1
(g663
g3
NtRp1207
(dp1208
g666
crules.compiled_krb.rfts_bc
build_scouts
p1209
sg39
g1206
sg668
g1209
sg669
S'orders_build'
p1210
sg670
Nsg671
(g1
(g672
g3
NtRp1211
(dp1212
g39
S'stars_list'
p1213
sbg1
(g672
g3
NtRp1214
(dp1215
g39
S'num_stars'
p1216
sbg754
g1
(g672
g3
NtRp1217
(dp1218
g39
S'myp'
p1219
sbg1
(g672
g3
NtRp1220
(dp1221
g39
S'stuff'
p1222
sbtp1223
sg681
g1193
sg682
(g754
g1
(g676
g3
NtRp1224
(dp1225
g679
(I0
I1
tp1226
sbtp1227
sg684
(tsbsS'colonyship'
p1228
g1
(g663
g3
NtRp1229
(dp1230
g666
crules.compiled_krb.rfts_bc
colonyship
p1231
sg39
g1228
sg668
g1231
sg669
g1228
sg670
Nsg671
(g673
g1
(g676
g3
NtRp1232
(dp1233
g679
S'Colonization'
p1234
sbtp1235
sg681
g1193
sg682
(g673
tp1236
sg684
(tsbsS'orders_colony'
p1237
g1
(g663
g3
NtRp1238
(dp1239
g666
crules.compiled_krb.rfts_bc
orders_colony
p1240
sg39
g1237
sg668
g1240
sg669
S'orders_colonise'
p1241
sg670
Nsg671
(g1048
g1
(g672
g3
NtRp1242
(dp1243
g39
S'contents'
p1244
sbg1
(g672
g3
NtRp1245
(dp1246
g39
S'ship_id'
p1247
sbg754
tp1248
sg681
g1193
sg682
(g1245
g754
tp1249
sg684
(tsbsg817
g1
(g663
g3
NtRp1250
(dp1251
g666
crules.compiled_krb.rfts_bc
neutralplanet
p1252
sg39
g817
sg668
g1252
sg669
g817
sg670
Nsg671
(g1
(g672
g3
NtRp1253
(dp1254
g39
g358
sbg754
tp1255
sg681
g1193
sg682
(g754
tp1256
sg684
(tsbsS'build_colonyships'
p1257
g1
(g663
g3
NtRp1258
(dp1259
g666
crules.compiled_krb.rfts_bc
build_colonyships
p1260
sg39
g1257
sg668
g1260
sg669
g1210
sg670
Nsg671
(g754
g1217
g1220
g1028
g1
(g850
g3
NtRp1261
(dp1262
g853
g854
sg857
(g1028
g689
tp1263
sbtp1264
sg681
g1193
sg682
(g754
g1
(g850
g3
NtRp1265
(dp1266
g853
Nsg857
(g1
(g676
g3
NtRp1267
(dp1268
g679
I1
sbg689
tp1269
sbtp1270
sg684
(tsbsg1067
g1
(g663
g3
NtRp1271
(dp1272
g666
crules.compiled_krb.rfts_bc
myplanet
p1273
sg39
g1067
sg668
g1273
sg669
g1067
sg670
crules.compiled_krb.rfts_plans
myplanet
p1274
sg671
(g785
g754
g848
tp1275
sg681
g1193
sg682
(g754
tp1276
sg684
(S'planet_id'
S'resources'
tp1277
sbsS'scoutship'
p1278
g1
(g663
g3
NtRp1279
(dp1280
g666
crules.compiled_krb.rfts_bc
scoutship
p1281
sg39
g1278
sg668
g1281
sg669
g1278
sg670
Nsg671
(g673
g1
(g676
g3
NtRp1282
(dp1283
g679
S'Scouting'
p1284
sbtp1285
sg681
g1193
sg682
(g673
tp1286
sg684
(tsbsS'not_visited_stars'
p1287
g1
(g663
g3
NtRp1288
(dp1289
g666
crules.compiled_krb.rfts_bc
not_visited_stars
p1290
sg39
g1287
sg668
g1290
sg669
g1287
sg670
Nsg671
(g673
g1211
tp1291
sg681
g1193
sg682
(g1211
tp1292
sg684
(tsbsS'produce_colonists'
p1293
g1
(g663
g3
NtRp1294
(dp1295
g666
crules.compiled_krb.rfts_bc
produce_colonists
p1296
sg39
g1293
sg668
g1296
sg669
S'orders_produce'
p1297
sg670
Nsg671
(g754
g1217
tp1298
sg681
g1193
sg682
(g754
g1
(g676
g3
NtRp1299
(dp1300
g679
I0
sbtp1301
sg684
(tsbsS'stars'
p1302
g1
(g663
g3
NtRp1303
(dp1304
g666
crules.compiled_krb.rfts_bc
stars
p1305
sg39
g1302
sg668
g1305
sg669
g1302
sg670
Nsg671
(g673
g1211
tp1306
sg681
g1193
sg682
(g1211
tp1307
sg684
(tsbsS'ship'
p1308
g1
(g663
g3
NtRp1309
(dp1310
g666
crules.compiled_krb.rfts_bc
ship
p1311
sg39
g1308
sg668
g1311
sg669
g1308
sg670
Nsg671
(g673
g1
(g676
g3
NtRp1312
(dp1313
g679
I4
sbtp1314
sg681
g1193
sg682
(g673
tp1315
sg684
(tsbsS'orders_move_scout'
p1316
g1
(g663
g3
NtRp1317
(dp1318
g666
crules.compiled_krb.rfts_bc
orders_move_scout
p1319
sg39
g1316
sg668
g1319
sg669
g1200
sg670
Nsg671
(g1201
g1
(g672
g3
NtRp1320
(dp1321
g39
S'star_list'
p1322
sbg1214
g1048
tp1323
sg681
g1193
sg682
(g1201
g1048
tp1324
sg684
(tsbssg719
g721
sg25
I01
sg26
(dp1325
g1241
g1
(g657
g3
NtRp1326
(dp1327
g39
g1241
sg725
(lp1328
g1238
asbsg1228
g1
(g657
g3
NtRp1329
(dp1330
g39
g1228
sg725
(lp1331
g1229
asbsg1200
g1
(g657
g3
NtRp1332
(dp1333
g39
g1200
sg725
(lp1334
g1197
ag1317
asbsg817
g1
(g657
g3
NtRp1335
(dp1336
g39
g817
sg725
(lp1337
g1250
asbsg1067
g1
(g657
g3
NtRp1338
(dp1339
g39
g1067
sg725
(lp1340
g1271
asbsg1278
g1
(g657
g3
NtRp1341
(dp1342
g39
g1278
sg725
(lp1343
g1279
asbsg1287
g1
(g657
g3
NtRp1344
(dp1345
g39
g1287
sg725
(lp1346
g1288
asbsg1302
g1
(g657
g3
NtRp1347
(dp1348
g39
g1302
sg725
(lp1349
g1303
asbsg1210
g1
(g657
g3
NtRp1350
(dp1351
g39
g1210
sg725
(lp1352
g1207
ag1258
asbsg1297
g1
(g657
g3
NtRp1353
(dp1354
g39
g1297
sg725
(lp1355
g1294
asbsg1308
g1
(g657
g3
NtRp1356
(dp1357
g39
g1308
sg725
(lp1358
g1309
asbssg739
(lp1359
sg39
g1192
sg741
g653
sg742
I0
sg743
I0
sg744
I0
sg745
I0
sg746
I0
sg747
I0
sbsg1147
g655
ssbsS'rulesfile'
p1360
S'risk'
p1361
sS'td'
p1362
(lp1363
(lp1364
F-0.47104456812985412
a(lp1365
I-12
aI8
aI0
aI14
aaa(lp1366
F0.76073519302954529
a(lp1367
I-2
aI8
aI0
aI5
aaa(lp1368
F-0.62994392286417866
a(lp1369
I-18
aI8
aI0
aI15
aaa(lp1370
F-0.75807954493991636
a(lp1371
I-38
aI8
aI0
aI23
aaa(lp1372
F-0.83016739141377227
a(lp1373
I-58
aI4
aI0
aI29
aaa(lp1374
F-0.18236100008753464
a(lp1375
aa(lp1376
F-0.36470568737645775
a(lp1377
I-8
aI8
aI0
aI10
aaa(lp1378
F-0.80185528052732613
a(lp1379
I-32
aI8
aI0
aI14
aaa(lp1380
F0.27388676706065279
a(lp1381
I-4
aI8
aI0
aI10
aaasb.